target datalayout = "e-m:e-p270:32:32-p271:32:32-p272:64:64-i64:64-i128:128-f80:128-n8:16:32:64-S128"
target triple = "x86_64-unknown-linux-gnu"

%struct.ArrowArray = type { i64, i64, i64, i64, i64, ptr, ptr, ptr, ptr, ptr }
%"class.arrow::util::detail::NullLog" = type { i8 }

@.str.71 = private unnamed_addr constant [54 x i8] c"Child release callback should have marked it released\00", align 1
@.str.72 = private unnamed_addr constant [59 x i8] c"Dictionary release callback should have marked it released\00", align 1
@stderr = external global ptr, align 8
@.str.73 = private unnamed_addr constant [11 x i8] c"%s:%d:: %s\00", align 1
@.str.74 = private unnamed_addr constant [115 x i8] c"generated/home/dtcxzyw/WorkSpace/Projects/compilers/llvm-opt-benchmark/bench/arrow/arrow/cpp/src/arrow/c/helpers.h\00", align 1
@.str.115 = private unnamed_addr constant [51 x i8] c"ArrowArrayRelease did not cleanup release callback\00", align 1

; Function Attrs: mustprogress uwtable
define linkonce_odr void @_ZN5arrow10MemoryPool4FreeEPhl(ptr noundef nonnull align 8 dereferenceable(8) %this, ptr noundef %buffer, i64 noundef %size) #0 comdat align 2 {
entry:
  %this.addr = alloca ptr, align 8
  %buffer.addr = alloca ptr, align 8
  %size.addr = alloca i64, align 8
  store ptr %this, ptr %this.addr, align 8
  store ptr %buffer, ptr %buffer.addr, align 8
  store i64 %size, ptr %size.addr, align 8
  %this1 = load ptr, ptr %this.addr, align 8
  %0 = load ptr, ptr %buffer.addr, align 8
  %1 = load i64, ptr %size.addr, align 8
  %vtable = load ptr, ptr %this1, align 8
  %vfn = getelementptr inbounds ptr, ptr %vtable, i64 4
  %2 = load ptr, ptr %vfn, align 8
  call void %2(ptr noundef nonnull align 8 dereferenceable(8) %this1, ptr noundef %0, i64 noundef %1, i64 noundef 64)
  ret void
}

; Function Attrs: mustprogress nounwind uwtable
define linkonce_odr void @ArrowArrayMarkReleased(ptr noundef %array) #1 comdat {
entry:
  %array.addr = alloca ptr, align 8
  store ptr %array, ptr %array.addr, align 8
  %0 = load ptr, ptr %array.addr, align 8
  %release = getelementptr inbounds %struct.ArrowArray, ptr %0, i32 0, i32 8
  store ptr null, ptr %release, align 8
  ret void
}

; Function Attrs: mustprogress nounwind uwtable
define internal void @_ZN5arrow12_GLOBAL__N_119PoolAllocationMixinINS0_24ExportedArrayPrivateDataEEdlEPv(ptr noundef %ptr) #1 align 2 personality ptr @__gxx_personality_v0 {
entry:
  %ptr.addr = alloca ptr, align 8
  store ptr %ptr, ptr %ptr.addr, align 8
  %call = invoke noundef ptr @_ZN5arrow19default_memory_poolEv()
          to label %invoke.cont unwind label %terminate.lpad

invoke.cont:                                      ; preds = %entry
  %0 = load ptr, ptr %ptr.addr, align 8
  invoke void @_ZN5arrow10MemoryPool4FreeEPhl(ptr noundef nonnull align 8 dereferenceable(8) %call, ptr noundef %0, i64 noundef 344)
          to label %invoke.cont1 unwind label %terminate.lpad

invoke.cont1:                                     ; preds = %invoke.cont
  ret void

terminate.lpad:                                   ; preds = %invoke.cont, %entry
  %1 = landingpad { ptr, i32 }
          catch ptr null
  %2 = extractvalue { ptr, i32 } %1, 0
  call void @__clang_call_terminate(ptr %2) #15
  unreachable
}

; Function Attrs: mustprogress nounwind uwtable
define linkonce_odr noundef nonnull align 1 dereferenceable(1) ptr @_ZN5arrow4util6detail7NullLoglsIA59_cEERS2_RKT_(ptr noundef nonnull align 1 dereferenceable(1) %this, ptr noundef nonnull align 1 dereferenceable(59) %t) #1 comdat align 2 {
entry:
  %this.addr = alloca ptr, align 8
  %t.addr = alloca ptr, align 8
  store ptr %this, ptr %this.addr, align 8
  store ptr %t, ptr %t.addr, align 8
  %this1 = load ptr, ptr %this.addr, align 8
  ret ptr %this1
}

; Function Attrs: mustprogress nounwind uwtable
define linkonce_odr noundef nonnull align 1 dereferenceable(1) ptr @_ZN5arrow4util6detail7NullLoglsIA54_cEERS2_RKT_(ptr noundef nonnull align 1 dereferenceable(1) %this, ptr noundef nonnull align 1 dereferenceable(54) %t) #1 comdat align 2 {
entry:
  %this.addr = alloca ptr, align 8
  %t.addr = alloca ptr, align 8
  store ptr %this, ptr %this.addr, align 8
  store ptr %t, ptr %t.addr, align 8
  %this1 = load ptr, ptr %this.addr, align 8
  ret ptr %this1
}

; Function Attrs: mustprogress uwtable
define linkonce_odr void @ArrowArrayRelease(ptr noundef %array) #0 comdat {
entry:
  %array.addr = alloca ptr, align 8
  store ptr %array, ptr %array.addr, align 8
  %0 = load ptr, ptr %array.addr, align 8
  %call = call i32 @ArrowArrayIsReleased(ptr noundef %0)
  %tobool = icmp ne i32 %call, 0
  br i1 %tobool, label %if.end5, label %if.then

if.then:                                          ; preds = %entry
  %1 = load ptr, ptr %array.addr, align 8
  %release = getelementptr inbounds %struct.ArrowArray, ptr %1, i32 0, i32 8
  %2 = load ptr, ptr %release, align 8
  %3 = load ptr, ptr %array.addr, align 8
  call void %2(ptr noundef %3)
  br label %do.body

do.body:                                          ; preds = %if.then
  %4 = load ptr, ptr %array.addr, align 8
  %call1 = call i32 @ArrowArrayIsReleased(ptr noundef %4)
  %tobool2 = icmp ne i32 %call1, 0
  br i1 %tobool2, label %if.end, label %if.then3

if.then3:                                         ; preds = %do.body
  %5 = load ptr, ptr @stderr, align 8
  %call4 = call i32 (ptr, ptr, ...) @fprintf(ptr noundef %5, ptr noundef @.str.73, ptr noundef @.str.74, i32 noundef 92, ptr noundef @.str.115)
  call void @abort() #15
  unreachable

if.end:                                           ; preds = %do.body
  br label %do.end

do.end:                                           ; preds = %if.end
  br label %if.end5

if.end5:                                          ; preds = %do.end, %entry
  ret void
}

; Function Attrs: mustprogress nounwind uwtable
define linkonce_odr i32 @ArrowArrayIsReleased(ptr noundef %array) #1 comdat {
entry:
  %array.addr = alloca ptr, align 8
  store ptr %array, ptr %array.addr, align 8
  %0 = load ptr, ptr %array.addr, align 8
  %release = getelementptr inbounds %struct.ArrowArray, ptr %0, i32 0, i32 8
  %1 = load ptr, ptr %release, align 8
  %cmp = icmp eq ptr %1, null
  %conv = zext i1 %cmp to i32
  ret i32 %conv
}

; Function Attrs: mustprogress uwtable
define internal void @_ZN5arrow12_GLOBAL__N_120ReleaseExportedArrayEP10ArrowArray(ptr noundef %array) #0 {
entry:
  %array.addr = alloca ptr, align 8
  %i = alloca i64, align 8
  %child = alloca ptr, align 8
  %ref.tmp = alloca %"class.arrow::util::detail::NullLog", align 1
  %dict = alloca ptr, align 8
  %ref.tmp14 = alloca %"class.arrow::util::detail::NullLog", align 1
  %pdata = alloca ptr, align 8
  store ptr %array, ptr %array.addr, align 8
  %0 = load ptr, ptr %array.addr, align 8
  %call = call i32 @ArrowArrayIsReleased(ptr noundef %0)
  %tobool = icmp ne i32 %call, 0
  br i1 %tobool, label %if.then, label %if.end

if.then:                                          ; preds = %entry
  br label %return

if.end:                                           ; preds = %entry
  store i64 0, ptr %i, align 8
  br label %for.cond

for.cond:                                         ; preds = %for.inc, %if.end
  %1 = load i64, ptr %i, align 8
  %2 = load ptr, ptr %array.addr, align 8
  %n_children = getelementptr inbounds %struct.ArrowArray, ptr %2, i32 0, i32 4
  %3 = load i64, ptr %n_children, align 8
  %cmp = icmp slt i64 %1, %3
  br i1 %cmp, label %for.body, label %for.end

for.body:                                         ; preds = %for.cond
  %4 = load ptr, ptr %array.addr, align 8
  %children = getelementptr inbounds %struct.ArrowArray, ptr %4, i32 0, i32 6
  %5 = load ptr, ptr %children, align 8
  %6 = load i64, ptr %i, align 8
  %arrayidx = getelementptr inbounds ptr, ptr %5, i64 %6
  %7 = load ptr, ptr %arrayidx, align 8
  store ptr %7, ptr %child, align 8
  %8 = load ptr, ptr %child, align 8
  call void @ArrowArrayRelease(ptr noundef %8)
  br label %while.cond

while.cond:                                       ; preds = %while.body, %for.body
  br i1 false, label %while.body, label %while.end

while.body:                                       ; preds = %while.cond
  %9 = load ptr, ptr %child, align 8
  %call1 = call i32 @ArrowArrayIsReleased(ptr noundef %9)
  br label %while.cond, !llvm.loop !77

while.end:                                        ; preds = %while.cond
  br label %while.cond2

while.cond2:                                      ; preds = %while.body3, %while.end
  br i1 false, label %while.body3, label %while.end5

while.body3:                                      ; preds = %while.cond2
  %call4 = call noundef nonnull align 1 dereferenceable(1) ptr @_ZN5arrow4util6detail7NullLoglsIA54_cEERS2_RKT_(ptr noundef nonnull align 1 dereferenceable(1) %ref.tmp, ptr noundef nonnull align 1 dereferenceable(54) @.str.71)
  br label %while.cond2, !llvm.loop !78

while.end5:                                       ; preds = %while.cond2
  br label %for.inc

for.inc:                                          ; preds = %while.end5
  %10 = load i64, ptr %i, align 8
  %inc = add nsw i64 %10, 1
  store i64 %inc, ptr %i, align 8
  br label %for.cond, !llvm.loop !79

for.end:                                          ; preds = %for.cond
  %11 = load ptr, ptr %array.addr, align 8
  %dictionary = getelementptr inbounds %struct.ArrowArray, ptr %11, i32 0, i32 7
  %12 = load ptr, ptr %dictionary, align 8
  store ptr %12, ptr %dict, align 8
  %13 = load ptr, ptr %dict, align 8
  %cmp6 = icmp ne ptr %13, null
  br i1 %cmp6, label %if.then7, label %if.end17

if.then7:                                         ; preds = %for.end
  %14 = load ptr, ptr %dict, align 8
  call void @ArrowArrayRelease(ptr noundef %14)
  br label %while.cond8

while.cond8:                                      ; preds = %while.body9, %if.then7
  br i1 false, label %while.body9, label %while.end11

while.body9:                                      ; preds = %while.cond8
  %15 = load ptr, ptr %dict, align 8
  %call10 = call i32 @ArrowArrayIsReleased(ptr noundef %15)
  br label %while.cond8, !llvm.loop !80

while.end11:                                      ; preds = %while.cond8
  br label %while.cond12

while.cond12:                                     ; preds = %while.body13, %while.end11
  br i1 false, label %while.body13, label %while.end16

while.body13:                                     ; preds = %while.cond12
  %call15 = call noundef nonnull align 1 dereferenceable(1) ptr @_ZN5arrow4util6detail7NullLoglsIA59_cEERS2_RKT_(ptr noundef nonnull align 1 dereferenceable(1) %ref.tmp14, ptr noundef nonnull align 1 dereferenceable(59) @.str.72)
  br label %while.cond12, !llvm.loop !81

while.end16:                                      ; preds = %while.cond12
  br label %if.end17

if.end17:                                         ; preds = %while.end16, %for.end
  br label %while.cond18

while.cond18:                                     ; preds = %while.body19, %if.end17
  br i1 false, label %while.body19, label %while.end20

while.body19:                                     ; preds = %while.cond18
  br label %while.cond18, !llvm.loop !82

while.end20:                                      ; preds = %while.cond18
  br label %while.cond21

while.cond21:                                     ; preds = %while.body22, %while.end20
  br i1 false, label %while.body22, label %while.end23

while.body22:                                     ; preds = %while.cond21
  br label %while.cond21, !llvm.loop !83

while.end23:                                      ; preds = %while.cond21
  br label %while.cond24

while.cond24:                                     ; preds = %while.body25, %while.end23
  br i1 false, label %while.body25, label %while.end26

while.body25:                                     ; preds = %while.cond24
  br label %while.cond24, !llvm.loop !84

while.end26:                                      ; preds = %while.cond24
  %16 = load ptr, ptr %array.addr, align 8
  %private_data27 = getelementptr inbounds %struct.ArrowArray, ptr %16, i32 0, i32 9
  %17 = load ptr, ptr %private_data27, align 8
  store ptr %17, ptr %pdata, align 8
  %18 = load ptr, ptr %pdata, align 8
  %isnull = icmp eq ptr %18, null
  br i1 %isnull, label %delete.end, label %delete.notnull

delete.notnull:                                   ; preds = %while.end26
  call void @_ZN5arrow12_GLOBAL__N_124ExportedArrayPrivateDataD2Ev(ptr noundef nonnull align 8 dereferenceable(344) %18) #12
  call void @_ZN5arrow12_GLOBAL__N_119PoolAllocationMixinINS0_24ExportedArrayPrivateDataEEdlEPv(ptr noundef %18) #12
  br label %delete.end

delete.end:                                       ; preds = %delete.notnull, %while.end26
  %19 = load ptr, ptr %array.addr, align 8
  call void @ArrowArrayMarkReleased(ptr noundef %19)
  br label %return

return:                                           ; preds = %delete.end, %if.then
  ret void
}