; Function Attrs: mustprogress uwtable
define internal void @_ZN5arrow12_GLOBAL__N_120ReleaseExportedArrayEP10ArrowArray(ptr nocapture noundef %array) #0 personality ptr @__gxx_personality_v0 {
entry:
  %release.i = getelementptr inbounds i8, ptr %array, i64 64
  %0 = load ptr, ptr %release.i, align 8
  %cmp.i.not = icmp eq ptr %0, null
  br i1 %cmp.i.not, label %return, label %for.cond.preheader

for.cond.preheader:                               ; preds = %entry
  %n_children = getelementptr inbounds i8, ptr %array, i64 32
  %1 = load i64, ptr %n_children, align 8
  %cmp18 = icmp sgt i64 %1, 0
  br i1 %cmp18, label %for.body.lr.ph, label %for.end

for.body.lr.ph:                                   ; preds = %for.cond.preheader
  %children = getelementptr inbounds i8, ptr %array, i64 48
  br label %for.body

for.body:                                         ; preds = %for.body.lr.ph, %ArrowArrayRelease.exit
  %2 = phi i64 [ %1, %for.body.lr.ph ], [ %8, %ArrowArrayRelease.exit ]
  %i.019 = phi i64 [ 0, %for.body.lr.ph ], [ %inc, %ArrowArrayRelease.exit ]
  %3 = load ptr, ptr %children, align 8
  %arrayidx = getelementptr inbounds ptr, ptr %3, i64 %i.019
  %4 = load ptr, ptr %arrayidx, align 8
  %release.i.i = getelementptr inbounds i8, ptr %4, i64 64
  %5 = load ptr, ptr %release.i.i, align 8
  %cmp.i.not.i = icmp eq ptr %5, null
  br i1 %cmp.i.not.i, label %ArrowArrayRelease.exit, label %if.then.i

if.then.i:                                        ; preds = %for.body
  tail call void %5(ptr noundef nonnull %4)
  %6 = load ptr, ptr %release.i.i, align 8
  %cmp.i5.not.i = icmp eq ptr %6, null
  br i1 %cmp.i5.not.i, label %if.then.i.ArrowArrayRelease.exit_crit_edge, label %if.then3.i

if.then.i.ArrowArrayRelease.exit_crit_edge:       ; preds = %if.then.i
  %.pre = load i64, ptr %n_children, align 8
  br label %ArrowArrayRelease.exit

if.then3.i:                                       ; preds = %if.then.i
  %7 = load ptr, ptr @stderr, align 8
  %call4.i = tail call i32 (ptr, ptr, ...) @fprintf(ptr noundef %7, ptr noundef nonnull @.str.73, ptr noundef nonnull @.str.74, i32 noundef 92, ptr noundef nonnull @.str.115) #30
  tail call void @abort() #31
  unreachable

ArrowArrayRelease.exit:                           ; preds = %if.then.i.ArrowArrayRelease.exit_crit_edge, %for.body
  %8 = phi i64 [ %.pre, %if.then.i.ArrowArrayRelease.exit_crit_edge ], [ %2, %for.body ]
  %inc = add nuw nsw i64 %i.019, 1
  %cmp = icmp slt i64 %inc, %8
  br i1 %cmp, label %for.body, label %for.end, !llvm.loop !844

for.end:                                          ; preds = %ArrowArrayRelease.exit, %for.cond.preheader
  %dictionary = getelementptr inbounds i8, ptr %array, i64 56
  %9 = load ptr, ptr %dictionary, align 8
  %cmp6.not = icmp eq ptr %9, null
  br i1 %cmp6.not, label %while.end26, label %if.then7

if.then7:                                         ; preds = %for.end
  %release.i.i10 = getelementptr inbounds i8, ptr %9, i64 64
  %10 = load ptr, ptr %release.i.i10, align 8
  %cmp.i.not.i11 = icmp eq ptr %10, null
  br i1 %cmp.i.not.i11, label %while.end26, label %if.then.i12

if.then.i12:                                      ; preds = %if.then7
  tail call void %10(ptr noundef nonnull %9)
  %11 = load ptr, ptr %release.i.i10, align 8
  %cmp.i5.not.i13 = icmp eq ptr %11, null
  br i1 %cmp.i5.not.i13, label %while.end26, label %if.then3.i14

if.then3.i14:                                     ; preds = %if.then.i12
  %12 = load ptr, ptr @stderr, align 8
  %call4.i15 = tail call i32 (ptr, ptr, ...) @fprintf(ptr noundef %12, ptr noundef nonnull @.str.73, ptr noundef nonnull @.str.74, i32 noundef 92, ptr noundef nonnull @.str.115) #30
  tail call void @abort() #31
  unreachable

while.end26:                                      ; preds = %if.then.i12, %if.then7, %for.end
  %private_data27 = getelementptr inbounds i8, ptr %array, i64 72
  %13 = load ptr, ptr %private_data27, align 8
  %isnull = icmp eq ptr %13, null
  br i1 %isnull, label %delete.end, label %delete.notnull

delete.notnull:                                   ; preds = %while.end26
  tail call fastcc void @_ZN5arrow12_GLOBAL__N_124ExportedArrayPrivateDataD2Ev(ptr noundef nonnull align 8 dereferenceable(344) %13) #24
  %call.i = invoke noundef ptr @_ZN5arrow19default_memory_poolEv()
          to label %invoke.cont.i unwind label %terminate.lpad.i

invoke.cont.i:                                    ; preds = %delete.notnull
  %vtable.i.i = load ptr, ptr %call.i, align 8
  %vfn.i.i = getelementptr inbounds i8, ptr %vtable.i.i, i64 32
  %14 = load ptr, ptr %vfn.i.i, align 8
  invoke void %14(ptr noundef nonnull align 8 dereferenceable(8) %call.i, ptr noundef nonnull %13, i64 noundef 344, i64 noundef 64)
          to label %delete.end unwind label %terminate.lpad.i

terminate.lpad.i:                                 ; preds = %invoke.cont.i, %delete.notnull
  %15 = landingpad { ptr, i32 }
          catch ptr null
  %16 = extractvalue { ptr, i32 } %15, 0
  tail call void @__clang_call_terminate(ptr %16) #31
  unreachable

delete.end:                                       ; preds = %invoke.cont.i, %while.end26
  store ptr null, ptr %release.i, align 8
  br label %return

return:                                           ; preds = %entry, %delete.end
  ret void
}